target datalayout = "e-m:e-p270:32:32-p271:32:32-p272:64:64-i64:64-i128:128-f80:128-n8:16:32:64-S128"
target triple = "x86_64-unknown-linux-gnu"

%"class.icu_75::UIterCollationIterator" = type { %"class.icu_75::CollationIterator.base", ptr }
%"class.icu_75::CollationIterator.base" = type <{ %"class.icu_75::UObject", ptr, ptr, %"class.icu_75::CollationIterator::CEBuffer", i32, [4 x i8], ptr, i32, i8 }>
%"class.icu_75::UObject" = type { ptr }
%"class.icu_75::CollationIterator::CEBuffer" = type { i32, %"class.icu_75::MaybeStackArray.0" }
%"class.icu_75::MaybeStackArray.0" = type { ptr, i32, i8, [40 x i64] }
%struct.UCharIterator = type { ptr, i32, i32, i32, i32, i32, ptr, ptr, ptr, ptr, ptr, ptr, ptr, ptr, ptr, ptr }
%"class.icu_75::FCDUIterCollationIterator" = type { %"class.icu_75::UIterCollationIterator", i32, i32, i32, i32, ptr, %"class.icu_75::UnicodeString" }
%"class.icu_75::UnicodeString" = type { %"class.icu_75::Replaceable", %"union.icu_75::UnicodeString::StackBufferOrFields" }
%"class.icu_75::Replaceable" = type { %"class.icu_75::UObject" }
%"union.icu_75::UnicodeString::StackBufferOrFields" = type { %struct.anon.1, [32 x i8] }
%struct.anon.1 = type { i16, i32, i32, ptr }

; Function Attrs: mustprogress uwtable
define noundef i32 @_ZNK6icu_7525FCDUIterCollationIterator9getOffsetEv(ptr noundef nonnull align 8 dereferenceable(488) %this) unnamed_addr #1 align 2 {
entry:
  %retval = alloca i32, align 4
  %this.addr = alloca ptr, align 8
  store ptr %this, ptr %this.addr, align 8
  %this1 = load ptr, ptr %this.addr, align 8
  %state = getelementptr inbounds %"class.icu_75::FCDUIterCollationIterator", ptr %this1, i32 0, i32 1
  %0 = load i32, ptr %state, align 8
  %cmp = icmp sle i32 %0, 1
  br i1 %cmp, label %if.then, label %if.else

if.then:                                          ; preds = %entry
  %iter = getelementptr inbounds %"class.icu_75::UIterCollationIterator", ptr %this1, i32 0, i32 1
  %1 = load ptr, ptr %iter, align 8
  %getIndex = getelementptr inbounds %struct.UCharIterator, ptr %1, i32 0, i32 6
  %2 = load ptr, ptr %getIndex, align 8
  %iter2 = getelementptr inbounds %"class.icu_75::UIterCollationIterator", ptr %this1, i32 0, i32 1
  %3 = load ptr, ptr %iter2, align 8
  %call = call noundef i32 %2(ptr noundef %3, i32 noundef 1)
  store i32 %call, ptr %retval, align 4
  br label %return

if.else:                                          ; preds = %entry
  %state3 = getelementptr inbounds %"class.icu_75::FCDUIterCollationIterator", ptr %this1, i32 0, i32 1
  %4 = load i32, ptr %state3, align 8
  %cmp4 = icmp eq i32 %4, 2
  br i1 %cmp4, label %if.then5, label %if.else6

if.then5:                                         ; preds = %if.else
  %pos = getelementptr inbounds %"class.icu_75::FCDUIterCollationIterator", ptr %this1, i32 0, i32 3
  %5 = load i32, ptr %pos, align 8
  store i32 %5, ptr %retval, align 4
  br label %return

if.else6:                                         ; preds = %if.else
  %pos7 = getelementptr inbounds %"class.icu_75::FCDUIterCollationIterator", ptr %this1, i32 0, i32 3
  %6 = load i32, ptr %pos7, align 8
  %cmp8 = icmp eq i32 %6, 0
  br i1 %cmp8, label %if.then9, label %if.else10

if.then9:                                         ; preds = %if.else6
  %start = getelementptr inbounds %"class.icu_75::FCDUIterCollationIterator", ptr %this1, i32 0, i32 2
  %7 = load i32, ptr %start, align 4
  store i32 %7, ptr %retval, align 4
  br label %return

if.else10:                                        ; preds = %if.else6
  %limit = getelementptr inbounds %"class.icu_75::FCDUIterCollationIterator", ptr %this1, i32 0, i32 4
  %8 = load i32, ptr %limit, align 4
  store i32 %8, ptr %retval, align 4
  br label %return

return:                                           ; preds = %if.else10, %if.then9, %if.then5, %if.then
  %9 = load i32, ptr %retval, align 4
  ret i32 %9
}