; Function Attrs: mustprogress uwtable
define noundef i32 @_ZNK6icu_7525FCDUIterCollationIterator9getOffsetEv(ptr nocapture noundef nonnull readonly align 8 dereferenceable(488) %this) unnamed_addr #1 align 2 {
entry:
  %state = getelementptr inbounds i8, ptr %this, i64 400
  %0 = load i32, ptr %state, align 8
  %cmp = icmp slt i32 %0, 2
  br i1 %cmp, label %if.then, label %if.else

if.then:                                          ; preds = %entry
  %iter = getelementptr inbounds i8, ptr %this, i64 392
  %1 = load ptr, ptr %iter, align 8
  %getIndex = getelementptr inbounds i8, ptr %1, i64 32
  %2 = load ptr, ptr %getIndex, align 8
  %call = tail call noundef i32 %2(ptr noundef %1, i32 noundef 1)
  br label %return

if.else:                                          ; preds = %entry
  %cmp4 = icmp eq i32 %0, 2
  %pos = getelementptr inbounds i8, ptr %this, i64 408
  %3 = load i32, ptr %pos, align 8
  br i1 %cmp4, label %return, label %if.else6

if.else6:                                         ; preds = %if.else
  %cmp8 = icmp eq i32 %3, 0
  br i1 %cmp8, label %if.then9, label %if.else10

if.then9:                                         ; preds = %if.else6
  %start = getelementptr inbounds i8, ptr %this, i64 404
  %4 = load i32, ptr %start, align 4
  br label %return

if.else10:                                        ; preds = %if.else6
  %limit = getelementptr inbounds i8, ptr %this, i64 412
  %5 = load i32, ptr %limit, align 4
  br label %return

return:                                           ; preds = %if.else, %if.else10, %if.then9, %if.then
  %retval.0 = phi i32 [ %call, %if.then ], [ %4, %if.then9 ], [ %5, %if.else10 ], [ %3, %if.else ]
  ret i32 %retval.0
}